; ModuleID = '54/889.c'
source_filename = "54/889.c"
target datalayout = "e-m:e-p270:32:32-p271:32:32-p272:64:64-i64:64-f80:128-n8:16:32:64-S128"
target triple = "x86_64-pc-linux-gnu"

@.str = private unnamed_addr constant [5 x i8] c"%d%d\00", align 1
@.str.1 = private unnamed_addr constant [4 x i8] c"%d\0A\00", align 1

; Function Attrs: noinline nounwind uwtable
define dso_local i32 @main() #0 {
  %1 = alloca i32, align 4
  %2 = alloca i32, align 4
  %3 = alloca i32, align 4
  %4 = alloca i32, align 4
  %5 = alloca i32, align 4
  store i32 0, i32* %1, align 4
  %6 = call i32 (i8*, ...) @__isoc99_scanf(i8* getelementptr inbounds ([5 x i8], [5 x i8]* @.str, i64 0, i64 0), i32* %2, i32* %3)
  store i32 1, i32* %5, align 4
  br label %7

7:                                                ; preds = %19, %0
  %8 = load i32, i32* %2, align 4
  %9 = load i32, i32* %3, align 4
  %10 = load i32, i32* %5, align 4
  %11 = call i32 @qiuyu(i32 %8, i32 %9, i32 %10)
  store i32 %11, i32* %4, align 4
  %12 = load i32, i32* %4, align 4
  %13 = load i32, i32* %2, align 4
  %14 = icmp eq i32 %12, %13
  br i1 %14, label %15, label %18

15:                                               ; preds = %7
  %16 = load i32, i32* %5, align 4
  %17 = call i32 (i8*, ...) @printf(i8* getelementptr inbounds ([4 x i8], [4 x i8]* @.str.1, i64 0, i64 0), i32 %16)
  br label %22

18:                                               ; preds = %7
  br label %19

19:                                               ; preds = %18
  %20 = load i32, i32* %5, align 4
  %21 = add nsw i32 %20, 1
  store i32 %21, i32* %5, align 4
  br label %7

22:                                               ; preds = %15
  %23 = load i32, i32* %1, align 4
  ret i32 %23
}

declare dso_local i32 @__isoc99_scanf(i8*, ...) #1

; Function Attrs: noinline nounwind uwtable
define dso_local i32 @qiuyu(i32 %0, i32 %1, i32 %2) #0 {
  %4 = alloca i32, align 4
  %5 = alloca i32, align 4
  %6 = alloca i32, align 4
  %7 = alloca i32, align 4
  %8 = alloca i32, align 4
  store i32 %0, i32* %4, align 4
  store i32 %1, i32* %5, align 4
  store i32 %2, i32* %6, align 4
  %9 = load i32, i32* %6, align 4
  store i32 %9, i32* %8, align 4
  store i32 0, i32* %7, align 4
  br label %10

10:                                               ; preds = %37, %3
  %11 = load i32, i32* %7, align 4
  %12 = load i32, i32* %4, align 4
  %13 = icmp slt i32 %11, %12
  br i1 %13, label %14, label %40

14:                                               ; preds = %10
  %15 = load i32, i32* %8, align 4
  %16 = load i32, i32* %4, align 4
  %17 = srem i32 %15, %16
  %18 = load i32, i32* %5, align 4
  %19 = icmp eq i32 %17, %18
  br i1 %19, label %20, label %35

20:                                               ; preds = %14
  %21 = load i32, i32* %8, align 4
  %22 = load i32, i32* %4, align 4
  %23 = sdiv i32 %21, %22
  %24 = icmp sgt i32 %23, 0
  br i1 %24, label %25, label %35

25:                                               ; preds = %20
  %26 = load i32, i32* %8, align 4
  %27 = load i32, i32* %5, align 4
  %28 = sub nsw i32 %26, %27
  %29 = load i32, i32* %8, align 4
  %30 = load i32, i32* %5, align 4
  %31 = sub nsw i32 %29, %30
  %32 = load i32, i32* %4, align 4
  %33 = sdiv i32 %31, %32
  %34 = sub nsw i32 %28, %33
  store i32 %34, i32* %8, align 4
  br label %36

35:                                               ; preds = %20, %14
  br label %40

36:                                               ; preds = %25
  br label %37

37:                                               ; preds = %36
  %38 = load i32, i32* %7, align 4
  %39 = add nsw i32 %38, 1
  store i32 %39, i32* %7, align 4
  br label %10

40:                                               ; preds = %35, %10
  %41 = load i32, i32* %7, align 4
  ret i32 %41
}

declare dso_local i32 @printf(i8*, ...) #1


!llvm.module.flags = !{!0}
!llvm.ident = !{!1}

!0 = !{i32 1, !"wchar_size", i32 4}
!1 = !{!"clang version 10.0.0-4ubuntu1 "}
